target datalayout = "e-m:e-p270:32:32-p271:32:32-p272:64:64-i64:64-i128:128-f80:128-n8:16:32:64-S128"
target triple = "x86_64-pc-linux-gnu"

%struct._GdkEventKey = type { i32, ptr, i8, i32, i32, i32, i32, ptr, i16, i8, i8 }

; Function Attrs: nounwind uwtable
define i32 @dt_handle_dialog_enter(ptr noundef %0, ptr noundef %1, ptr noundef %2) #0 {
  %4 = alloca i32, align 4
  %5 = alloca ptr, align 8
  %6 = alloca ptr, align 8
  %7 = alloca ptr, align 8
  store ptr %0, ptr %5, align 8, !tbaa !111
  store ptr %1, ptr %6, align 8, !tbaa !214
  store ptr %2, ptr %7, align 8, !tbaa !76
  %8 = load ptr, ptr %6, align 8, !tbaa !214
  %9 = getelementptr inbounds nuw %struct._GdkEventKey, ptr %8, i32 0, i32 5
  %10 = load i32, ptr %9, align 4, !tbaa !216
  %11 = icmp eq i32 %10, 65293
  br i1 %11, label %17, label %12

12:                                               ; preds = %3
  %13 = load ptr, ptr %6, align 8, !tbaa !214
  %14 = getelementptr inbounds nuw %struct._GdkEventKey, ptr %13, i32 0, i32 5
  %15 = load i32, ptr %14, align 4, !tbaa !216
  %16 = icmp eq i32 %15, 65421
  br i1 %16, label %17, label %21

17:                                               ; preds = %12, %3
  %18 = load ptr, ptr %5, align 8, !tbaa !111
  %19 = call i64 @gtk_dialog_get_type() #15
  %20 = call ptr @g_type_check_instance_cast(ptr noundef %18, i64 noundef %19)
  call void @gtk_dialog_response(ptr noundef %20, i32 noundef -3)
  store i32 1, ptr %4, align 4
  br label %22

21:                                               ; preds = %12
  store i32 0, ptr %4, align 4
  br label %22

22:                                               ; preds = %21, %17
  %23 = load i32, ptr %4, align 4
  ret i32 %23
}