; Function Attrs: nounwind uwtable
define range(i32 0, 2) i32 @dt_handle_dialog_enter(ptr noundef %0, ptr noundef readonly captures(none) %1, ptr noundef readnone captures(none) %2) local_unnamed_addr #0 {
  %4 = getelementptr inbounds nuw i8, ptr %1, i64 28
  %5 = load i32, ptr %4, align 4, !tbaa !177
  switch i32 %5, label %9 [
    i32 65293, label %6
    i32 65421, label %6
  ]

6:                                                ; preds = %3, %3
  %7 = tail call i64 @gtk_dialog_get_type() #23
  %8 = tail call ptr @g_type_check_instance_cast(ptr noundef %0, i64 noundef %7) #19
  tail call void @gtk_dialog_response(ptr noundef %8, i32 noundef -3) #19
  br label %9

9:                                                ; preds = %3, %6
  %.0 = phi i32 [ 1, %6 ], [ 0, %3 ]
  ret i32 %.0
}